target datalayout = "e-m:e-p270:32:32-p271:32:32-p272:64:64-i64:64-i128:128-f80:128-n8:16:32:64-S128"
target triple = "x86_64-pc-linux-gnu"

%struct.pointf_s = type { double, double }
%struct.Agobj_s = type { %struct.Agtag_s, ptr }
%struct.Agtag_s = type { i32, i64 }
%struct.Agrec_s = type { ptr, ptr }
%struct.port = type { %struct.pointf_s, double, ptr, i8, i8, i8, i8, i8, i8, ptr }
%struct.dtlink_s_ = type { ptr, %union.anon }
%union.anon = type { ptr }
%struct.Agedgeinfo_t = type { %struct.Agrec_s, ptr, %struct.port, %struct.port, ptr, ptr, ptr, ptr, i8, i8, i8, i8, i8, ptr, ptr, double, double, %struct.Ppoly_t, i8, i8, i16, i32, i32, i32, i16, i32, ptr }
%struct.Ppoly_t = type { ptr, i64 }
%struct.Agedge_s = type { %struct.Agobj_s, %struct.dtlink_s_, %struct.dtlink_s_, ptr }

; Function Attrs: nounwind uwtable
define void @resolvePorts(ptr noundef %0) #0 {
  %2 = alloca ptr, align 8
  %3 = alloca %struct.port, align 8
  %4 = alloca %struct.port, align 8
  store ptr %0, ptr %2, align 8, !tbaa !165
  %5 = load ptr, ptr %2, align 8, !tbaa !165
  %6 = getelementptr inbounds nuw %struct.Agobj_s, ptr %5, i32 0, i32 1
  %7 = load ptr, ptr %6, align 8, !tbaa !37
  %8 = getelementptr inbounds nuw %struct.Agedgeinfo_t, ptr %7, i32 0, i32 2
  %9 = getelementptr inbounds nuw %struct.port, ptr %8, i32 0, i32 6
  %10 = load i8, ptr %9, align 1, !tbaa !166, !range !31, !noundef !32
  %11 = trunc i8 %10 to i1
  br i1 %11, label %12, label %49

12:                                               ; preds = %1
  %13 = load ptr, ptr %2, align 8, !tbaa !165
  %14 = getelementptr inbounds nuw %struct.Agobj_s, ptr %13, i32 0, i32 1
  %15 = load ptr, ptr %14, align 8, !tbaa !37
  %16 = getelementptr inbounds nuw %struct.Agedgeinfo_t, ptr %15, i32 0, i32 2
  call void @llvm.lifetime.start.p0(i64 48, ptr %3) #13
  %17 = load ptr, ptr %2, align 8, !tbaa !165
  %18 = getelementptr inbounds nuw %struct.Agobj_s, ptr %17, i32 0, i32 0
  %19 = load i32, ptr %18, align 8
  %20 = and i32 %19, 3
  %21 = icmp eq i32 %20, 3
  br i1 %21, label %22, label %24

22:                                               ; preds = %12
  %23 = load ptr, ptr %2, align 8, !tbaa !165
  br label %27

24:                                               ; preds = %12
  %25 = load ptr, ptr %2, align 8, !tbaa !165
  %26 = getelementptr inbounds %struct.Agedge_s, ptr %25, i64 1
  br label %27

27:                                               ; preds = %24, %22
  %28 = phi ptr [ %23, %22 ], [ %26, %24 ]
  %29 = getelementptr inbounds nuw %struct.Agedge_s, ptr %28, i32 0, i32 3
  %30 = load ptr, ptr %29, align 8, !tbaa !170
  %31 = load ptr, ptr %2, align 8, !tbaa !165
  %32 = getelementptr inbounds nuw %struct.Agobj_s, ptr %31, i32 0, i32 0
  %33 = load i32, ptr %32, align 8
  %34 = and i32 %33, 3
  %35 = icmp eq i32 %34, 2
  br i1 %35, label %36, label %38

36:                                               ; preds = %27
  %37 = load ptr, ptr %2, align 8, !tbaa !165
  br label %41

38:                                               ; preds = %27
  %39 = load ptr, ptr %2, align 8, !tbaa !165
  %40 = getelementptr inbounds %struct.Agedge_s, ptr %39, i64 -1
  br label %41

41:                                               ; preds = %38, %36
  %42 = phi ptr [ %37, %36 ], [ %40, %38 ]
  %43 = getelementptr inbounds nuw %struct.Agedge_s, ptr %42, i32 0, i32 3
  %44 = load ptr, ptr %43, align 8, !tbaa !170
  %45 = load ptr, ptr %2, align 8, !tbaa !165
  %46 = getelementptr inbounds nuw %struct.Agobj_s, ptr %45, i32 0, i32 1
  %47 = load ptr, ptr %46, align 8, !tbaa !37
  %48 = getelementptr inbounds nuw %struct.Agedgeinfo_t, ptr %47, i32 0, i32 2
  call void @resolvePort(ptr dead_on_unwind writable sret(%struct.port) align 8 %3, ptr noundef %30, ptr noundef %44, ptr noundef %48)
  call void @llvm.memcpy.p0.p0.i64(ptr align 8 %16, ptr align 8 %3, i64 48, i1 false), !tbaa.struct !172
  call void @llvm.lifetime.end.p0(i64 48, ptr %3) #13
  br label %49

49:                                               ; preds = %41, %1
  %50 = load ptr, ptr %2, align 8, !tbaa !165
  %51 = getelementptr inbounds nuw %struct.Agobj_s, ptr %50, i32 0, i32 1
  %52 = load ptr, ptr %51, align 8, !tbaa !37
  %53 = getelementptr inbounds nuw %struct.Agedgeinfo_t, ptr %52, i32 0, i32 3
  %54 = getelementptr inbounds nuw %struct.port, ptr %53, i32 0, i32 6
  %55 = load i8, ptr %54, align 1, !tbaa !173, !range !31, !noundef !32
  %56 = trunc i8 %55 to i1
  br i1 %56, label %57, label %94

57:                                               ; preds = %49
  %58 = load ptr, ptr %2, align 8, !tbaa !165
  %59 = getelementptr inbounds nuw %struct.Agobj_s, ptr %58, i32 0, i32 1
  %60 = load ptr, ptr %59, align 8, !tbaa !37
  %61 = getelementptr inbounds nuw %struct.Agedgeinfo_t, ptr %60, i32 0, i32 3
  call void @llvm.lifetime.start.p0(i64 48, ptr %4) #13
  %62 = load ptr, ptr %2, align 8, !tbaa !165
  %63 = getelementptr inbounds nuw %struct.Agobj_s, ptr %62, i32 0, i32 0
  %64 = load i32, ptr %63, align 8
  %65 = and i32 %64, 3
  %66 = icmp eq i32 %65, 2
  br i1 %66, label %67, label %69

67:                                               ; preds = %57
  %68 = load ptr, ptr %2, align 8, !tbaa !165
  br label %72

69:                                               ; preds = %57
  %70 = load ptr, ptr %2, align 8, !tbaa !165
  %71 = getelementptr inbounds %struct.Agedge_s, ptr %70, i64 -1
  br label %72

72:                                               ; preds = %69, %67
  %73 = phi ptr [ %68, %67 ], [ %71, %69 ]
  %74 = getelementptr inbounds nuw %struct.Agedge_s, ptr %73, i32 0, i32 3
  %75 = load ptr, ptr %74, align 8, !tbaa !170
  %76 = load ptr, ptr %2, align 8, !tbaa !165
  %77 = getelementptr inbounds nuw %struct.Agobj_s, ptr %76, i32 0, i32 0
  %78 = load i32, ptr %77, align 8
  %79 = and i32 %78, 3
  %80 = icmp eq i32 %79, 3
  br i1 %80, label %81, label %83

81:                                               ; preds = %72
  %82 = load ptr, ptr %2, align 8, !tbaa !165
  br label %86

83:                                               ; preds = %72
  %84 = load ptr, ptr %2, align 8, !tbaa !165
  %85 = getelementptr inbounds %struct.Agedge_s, ptr %84, i64 1
  br label %86

86:                                               ; preds = %83, %81
  %87 = phi ptr [ %82, %81 ], [ %85, %83 ]
  %88 = getelementptr inbounds nuw %struct.Agedge_s, ptr %87, i32 0, i32 3
  %89 = load ptr, ptr %88, align 8, !tbaa !170
  %90 = load ptr, ptr %2, align 8, !tbaa !165
  %91 = getelementptr inbounds nuw %struct.Agobj_s, ptr %90, i32 0, i32 1
  %92 = load ptr, ptr %91, align 8, !tbaa !37
  %93 = getelementptr inbounds nuw %struct.Agedgeinfo_t, ptr %92, i32 0, i32 3
  call void @resolvePort(ptr dead_on_unwind writable sret(%struct.port) align 8 %4, ptr noundef %75, ptr noundef %89, ptr noundef %93)
  call void @llvm.memcpy.p0.p0.i64(ptr align 8 %61, ptr align 8 %4, i64 48, i1 false), !tbaa.struct !172
  call void @llvm.lifetime.end.p0(i64 48, ptr %4) #13
  br label %94

94:                                               ; preds = %86, %49
  ret void
}