; Function Attrs: nounwind uwtable
define void @resolvePorts(ptr noundef readonly captures(none) %0) local_unnamed_addr #0 {
  %2 = alloca %struct.port, align 8
  %3 = alloca %struct.port, align 8
  %4 = getelementptr inbounds nuw i8, ptr %0, i64 16
  %5 = load ptr, ptr %4, align 8, !tbaa !21
  %6 = getelementptr inbounds nuw i8, ptr %5, i64 59
  %7 = load i8, ptr %6, align 1, !tbaa !142, !range !77, !noundef !78
  %8 = trunc nuw i8 %7 to i1
  br i1 %8, label %9, label %21

9:                                                ; preds = %1
  %10 = getelementptr inbounds nuw i8, ptr %5, i64 24
  call void @llvm.lifetime.start.p0(i64 48, ptr nonnull %2) #26
  %11 = load i32, ptr %0, align 8
  %12 = and i32 %11, 3
  %13 = icmp eq i32 %12, 3
  %.idx = select i1 %13, i64 0, i64 64
  %14 = getelementptr inbounds nuw i8, ptr %0, i64 %.idx
  %15 = getelementptr inbounds nuw i8, ptr %14, i64 56
  %16 = load ptr, ptr %15, align 8, !tbaa !146
  %17 = icmp eq i32 %12, 2
  %.idx18 = select i1 %17, i64 0, i64 -64
  %18 = getelementptr inbounds i8, ptr %0, i64 %.idx18
  %19 = getelementptr inbounds nuw i8, ptr %18, i64 56
  %20 = load ptr, ptr %19, align 8, !tbaa !146
  call void @resolvePort(ptr dead_on_unwind nonnull writable sret(%struct.port) align 8 %2, ptr noundef %16, ptr noundef %20, ptr noundef nonnull %10)
  call void @llvm.memcpy.p0.p0.i64(ptr noundef nonnull align 8 dereferenceable(48) %10, ptr noundef nonnull align 8 dereferenceable(48) %2, i64 48, i1 false), !tbaa.struct !148
  call void @llvm.lifetime.end.p0(i64 48, ptr nonnull %2) #26
  %.pre = load ptr, ptr %4, align 8, !tbaa !21
  br label %21

21:                                               ; preds = %9, %1
  %22 = phi ptr [ %.pre, %9 ], [ %5, %1 ]
  %23 = getelementptr inbounds nuw i8, ptr %22, i64 107
  %24 = load i8, ptr %23, align 1, !tbaa !150, !range !77, !noundef !78
  %25 = trunc nuw i8 %24 to i1
  br i1 %25, label %26, label %38

26:                                               ; preds = %21
  %27 = getelementptr inbounds nuw i8, ptr %22, i64 72
  call void @llvm.lifetime.start.p0(i64 48, ptr nonnull %3) #26
  %28 = load i32, ptr %0, align 8
  %29 = and i32 %28, 3
  %30 = icmp eq i32 %29, 2
  %.idx19 = select i1 %30, i64 0, i64 -64
  %31 = getelementptr inbounds i8, ptr %0, i64 %.idx19
  %32 = getelementptr inbounds nuw i8, ptr %31, i64 56
  %33 = load ptr, ptr %32, align 8, !tbaa !146
  %34 = icmp eq i32 %29, 3
  %.idx20 = select i1 %34, i64 0, i64 64
  %35 = getelementptr inbounds nuw i8, ptr %0, i64 %.idx20
  %36 = getelementptr inbounds nuw i8, ptr %35, i64 56
  %37 = load ptr, ptr %36, align 8, !tbaa !146
  call void @resolvePort(ptr dead_on_unwind nonnull writable sret(%struct.port) align 8 %3, ptr noundef %33, ptr noundef %37, ptr noundef nonnull %27)
  call void @llvm.memcpy.p0.p0.i64(ptr noundef nonnull align 8 dereferenceable(48) %27, ptr noundef nonnull align 8 dereferenceable(48) %3, i64 48, i1 false), !tbaa.struct !148
  call void @llvm.lifetime.end.p0(i64 48, ptr nonnull %3) #26
  br label %38

38:                                               ; preds = %26, %21
  ret void
}